target datalayout = "e-m:e-p270:32:32-p271:32:32-p272:64:64-i64:64-i128:128-f80:128-n8:16:32:64-S128"
target triple = "x86_64-unknown-linux-gnu"

@.str.12 = private unnamed_addr constant [4 x i8] c"RDB\00", align 1
@.str.13 = private unnamed_addr constant [4 x i8] c"AOF\00", align 1
@.str.14 = private unnamed_addr constant [4 x i8] c"LDB\00", align 1
@.str.15 = private unnamed_addr constant [7 x i8] c"MODULE\00", align 1
@.str.16 = private unnamed_addr constant [8 x i8] c"Unknown\00", align 1

; Function Attrs: nounwind uwtable
define dso_local ptr @strChildType(i32 noundef %type) #0 {
entry:
  %retval = alloca ptr, align 8
  %type.addr = alloca i32, align 4
  store i32 %type, ptr %type.addr, align 4
  %0 = load i32, ptr %type.addr, align 4
  switch i32 %0, label %sw.default [
    i32 1, label %sw.bb
    i32 2, label %sw.bb1
    i32 3, label %sw.bb2
    i32 4, label %sw.bb3
  ]

sw.bb:                                            ; preds = %entry
  store ptr @.str.12, ptr %retval, align 8
  br label %return

sw.bb1:                                           ; preds = %entry
  store ptr @.str.13, ptr %retval, align 8
  br label %return

sw.bb2:                                           ; preds = %entry
  store ptr @.str.14, ptr %retval, align 8
  br label %return

sw.bb3:                                           ; preds = %entry
  store ptr @.str.15, ptr %retval, align 8
  br label %return

sw.default:                                       ; preds = %entry
  store ptr @.str.16, ptr %retval, align 8
  br label %return

return:                                           ; preds = %sw.default, %sw.bb3, %sw.bb2, %sw.bb1, %sw.bb
  %1 = load ptr, ptr %retval, align 8
  ret ptr %1
}